; Function Attrs: mustprogress uwtable
define hidden void @_ZN20eliminate_predicates7rewriteER7obj_refI4expr11ast_managerE(ptr noundef nonnull align 8 dereferenceable(400) %0, ptr noundef nonnull align 8 dereferenceable(16) %1) local_unnamed_addr #3 align 2 personality ptr @__gxx_personality_v0 {
  %3 = alloca %class.obj_ref.49, align 8
  call void @llvm.lifetime.start.p0(i64 16, ptr nonnull %3) #23
  %4 = getelementptr inbounds nuw i8, ptr %0, i64 8
  %5 = load ptr, ptr %4, align 8, !tbaa !100
  store ptr null, ptr %3, align 8, !tbaa !106
  %6 = getelementptr inbounds nuw i8, ptr %3, i64 8
  store ptr %5, ptr %6, align 8, !tbaa !28
  %7 = getelementptr inbounds nuw i8, ptr %0, i64 352
  %8 = load ptr, ptr %1, align 8, !tbaa !25
  invoke void @_ZN12der_rewriterclEP4exprR7obj_refIS0_11ast_managerERS2_I3appS3_E(ptr noundef nonnull align 8 dereferenceable(8) %7, ptr noundef %8, ptr noundef nonnull align 8 dereferenceable(16) %1, ptr noundef nonnull align 8 dereferenceable(16) %3)
          to label %9 unwind label %23

9:                                                ; preds = %2
  %10 = getelementptr inbounds nuw i8, ptr %0, i64 360
  invoke void @_ZN11th_rewriterclER7obj_refI4expr11ast_managerE(ptr noundef nonnull align 8 dereferenceable(16) %10, ptr noundef nonnull align 8 dereferenceable(16) %1)
          to label %11 unwind label %23

11:                                               ; preds = %9
  %12 = load ptr, ptr %3, align 8, !tbaa !106
  %.not.i.i = icmp eq ptr %12, null
  br i1 %.not.i.i, label %_ZN7obj_refI3app11ast_managerED2Ev.exit, label %13

13:                                               ; preds = %11
  %14 = load ptr, ptr %6, align 8, !tbaa !124
  %15 = getelementptr inbounds nuw i8, ptr %12, i64 8
  %16 = load i32, ptr %15, align 4, !tbaa !101
  %17 = add i32 %16, -1
  store i32 %17, ptr %15, align 4, !tbaa !101
  %18 = icmp eq i32 %17, 0
  br i1 %18, label %19, label %_ZN7obj_refI3app11ast_managerED2Ev.exit

19:                                               ; preds = %13
  invoke void @_ZN11ast_manager11delete_nodeEP3ast(ptr noundef nonnull align 8 dereferenceable(976) %14, ptr noundef nonnull %12)
          to label %_ZN7obj_refI3app11ast_managerED2Ev.exit unwind label %20

20:                                               ; preds = %19
  %21 = landingpad { ptr, i32 }
          catch ptr null
  %22 = extractvalue { ptr, i32 } %21, 0
  call void @__clang_call_terminate(ptr %22) #24
  unreachable

_ZN7obj_refI3app11ast_managerED2Ev.exit:          ; preds = %11, %13, %19
  call void @llvm.lifetime.end.p0(i64 16, ptr nonnull %3) #23
  ret void

23:                                               ; preds = %9, %2
  %24 = landingpad { ptr, i32 }
          cleanup
  call void @_ZN7obj_refI3app11ast_managerED2Ev(ptr noundef nonnull align 8 dereferenceable(16) %3) #23
  call void @llvm.lifetime.end.p0(i64 16, ptr nonnull %3) #23
  resume { ptr, i32 } %24
}